; Function Attrs: nounwind uwtable
define ptr @l_Lean_Server_FileWorker_handleWaitForDiagnostics(ptr noundef %0, ptr noundef %1, ptr noundef %2) #0 {
  tail call void @lean_inc_heartbeat() #8
  %4 = tail call noalias ptr @mi_malloc_small(i64 noundef 32) #8
  %5 = icmp eq ptr %4, null
  br i1 %5, label %6, label %lean_alloc_closure.exit

6:                                                ; preds = %3
  tail call void @lean_internal_panic_out_of_memory() #9
  unreachable

lean_alloc_closure.exit:                          ; preds = %3
  %7 = getelementptr inbounds nuw i8, ptr %4, i64 4
  store i32 1, ptr %4, align 4, !tbaa !4
  store i32 -184549344, ptr %7, align 4
  %8 = getelementptr inbounds nuw i8, ptr %4, i64 8
  store ptr @l_Lean_Server_FileWorker_handleWaitForDiagnostics_waitLoop___boxed, ptr %8, align 8, !tbaa !10
  %9 = getelementptr inbounds nuw i8, ptr %4, i64 16
  store i16 3, ptr %9, align 8, !tbaa !14
  %10 = getelementptr inbounds nuw i8, ptr %4, i64 18
  store i16 1, ptr %10, align 2, !tbaa !14
  %11 = getelementptr inbounds nuw i8, ptr %4, i64 24
  store ptr %0, ptr %11, align 8, !tbaa !10
  %12 = ptrtoint ptr %1 to i64
  %13 = and i64 %12, 1
  %.not = icmp eq i64 %13, 0
  br i1 %.not, label %14, label %lean_inc.exit17

14:                                               ; preds = %lean_alloc_closure.exit
  %.val.i = load i32, ptr %1, align 4, !tbaa !4
  %15 = icmp sgt i32 %.val.i, 0
  br i1 %15, label %16, label %18, !prof !9

16:                                               ; preds = %14
  %17 = add nuw i32 %.val.i, 1
  store i32 %17, ptr %1, align 4, !tbaa !4
  br label %lean_inc.exit17

18:                                               ; preds = %14
  %.not.i18 = icmp eq i32 %.val.i, 0
  br i1 %.not.i18, label %lean_inc.exit17, label %19

19:                                               ; preds = %18
  tail call void @lean_inc_ref_cold(ptr noundef nonnull %1) #8
  br label %lean_inc.exit17

lean_inc.exit17:                                  ; preds = %19, %18, %16, %lean_alloc_closure.exit
  %20 = tail call ptr @l_Lean_Server_RequestM_asTask___rarg(ptr noundef nonnull %4, ptr noundef %1, ptr noundef %2) #8
  %21 = getelementptr inbounds nuw i8, ptr %20, i64 8
  %22 = load ptr, ptr %21, align 8, !tbaa !10
  %23 = ptrtoint ptr %22 to i64
  %24 = and i64 %23, 1
  %.not25 = icmp eq i64 %24, 0
  br i1 %.not25, label %25, label %lean_inc.exit16

25:                                               ; preds = %lean_inc.exit17
  %.val.i19 = load i32, ptr %22, align 4, !tbaa !4
  %26 = icmp sgt i32 %.val.i19, 0
  br i1 %26, label %27, label %29, !prof !9

27:                                               ; preds = %25
  %28 = add nuw i32 %.val.i19, 1
  store i32 %28, ptr %22, align 4, !tbaa !4
  br label %lean_inc.exit16

29:                                               ; preds = %25
  %.not.i20 = icmp eq i32 %.val.i19, 0
  br i1 %.not.i20, label %lean_inc.exit16, label %30

30:                                               ; preds = %29
  tail call void @lean_inc_ref_cold(ptr noundef nonnull %22) #8
  br label %lean_inc.exit16

lean_inc.exit16:                                  ; preds = %30, %29, %27, %lean_inc.exit17
  %31 = getelementptr inbounds nuw i8, ptr %20, i64 16
  %32 = load ptr, ptr %31, align 8, !tbaa !10
  %33 = ptrtoint ptr %32 to i64
  %34 = and i64 %33, 1
  %.not26 = icmp eq i64 %34, 0
  br i1 %.not26, label %35, label %lean_inc.exit

35:                                               ; preds = %lean_inc.exit16
  %.val.i22 = load i32, ptr %32, align 4, !tbaa !4
  %36 = icmp sgt i32 %.val.i22, 0
  br i1 %36, label %37, label %39, !prof !9

37:                                               ; preds = %35
  %38 = add nuw i32 %.val.i22, 1
  store i32 %38, ptr %32, align 4, !tbaa !4
  br label %lean_inc.exit

39:                                               ; preds = %35
  %.not.i23 = icmp eq i32 %.val.i22, 0
  br i1 %.not.i23, label %lean_inc.exit, label %40

40:                                               ; preds = %39
  tail call void @lean_inc_ref_cold(ptr noundef nonnull %32) #8
  br label %lean_inc.exit

lean_inc.exit:                                    ; preds = %40, %39, %37, %lean_inc.exit16
  %41 = ptrtoint ptr %20 to i64
  %42 = and i64 %41, 1
  %.not27 = icmp eq i64 %42, 0
  br i1 %.not27, label %43, label %lean_dec.exit

43:                                               ; preds = %lean_inc.exit
  %44 = load i32, ptr %20, align 4, !tbaa !4
  %45 = icmp sgt i32 %44, 1
  br i1 %45, label %46, label %48, !prof !9

46:                                               ; preds = %43
  %47 = add nsw i32 %44, -1
  store i32 %47, ptr %20, align 4, !tbaa !4
  br label %lean_dec.exit

48:                                               ; preds = %43
  %.not.i = icmp eq i32 %44, 0
  br i1 %.not.i, label %lean_dec.exit, label %49

49:                                               ; preds = %48
  tail call void @lean_dec_ref_cold(ptr noundef nonnull %20) #8
  br label %lean_dec.exit

lean_dec.exit:                                    ; preds = %49, %48, %46, %lean_inc.exit
  %50 = load ptr, ptr @l_Lean_Server_FileWorker_handleWaitForDiagnostics___closed__1, align 8, !tbaa !10
  %51 = tail call ptr @l_Lean_Server_RequestM_bindTaskCheap___rarg(ptr noundef %22, ptr noundef %50, ptr noundef %1, ptr noundef %32) #8
  ret ptr %51
}